target datalayout = "e-m:e-p270:32:32-p271:32:32-p272:64:64-i64:64-i128:128-f80:128-n8:16:32:64-S128"
target triple = "x86_64-pc-linux-gnu"

%struct._object = type { %union.anon, ptr }
%union.anon = type { i64 }
%struct.PyVarObject = type { %struct._object, i64 }
%struct.anon = type { i32, i32 }
%struct._BlocksOutputBuffer = type { ptr, i64, i64 }
%struct.PyListObject = type { %struct.PyVarObject, ptr, i64 }
%struct.PyBytesObject = type { %struct.PyVarObject, i64, [1 x i8] }

@PyExc_MemoryError = external global ptr, align 8
@unable_allocate_msg = internal constant [34 x i8] c"Unable to allocate output buffer.\00", align 16

; Function Attrs: alwaysinline nounwind uwtable
define internal i32 @_Py_IsImmortal(ptr noundef %0) #4 {
  %2 = alloca ptr, align 8
  store ptr %0, ptr %2, align 8, !tbaa !3
  %3 = load ptr, ptr %2, align 8, !tbaa !3
  %4 = getelementptr inbounds nuw %struct._object, ptr %3, i32 0, i32 0
  %5 = getelementptr inbounds nuw %struct.anon, ptr %4, i32 0, i32 0
  %6 = load i32, ptr %5, align 8, !tbaa !33
  %7 = icmp slt i32 %6, 0
  %8 = zext i1 %7 to i32
  ret i32 %8
}

; Function Attrs: inlinehint nounwind uwtable
define internal ptr @PyBytes_AS_STRING(ptr noundef %0) #3 {
  %2 = alloca ptr, align 8
  store ptr %0, ptr %2, align 8, !tbaa !3
  %3 = load ptr, ptr %2, align 8, !tbaa !3
  %4 = getelementptr inbounds nuw %struct.PyBytesObject, ptr %3, i32 0, i32 2
  %5 = getelementptr inbounds [1 x i8], ptr %4, i64 0, i64 0
  ret ptr %5
}

; Function Attrs: alwaysinline nounwind uwtable
define internal void @Py_DECREF(ptr noundef %0) #4 {
  %2 = alloca ptr, align 8
  store ptr %0, ptr %2, align 8, !tbaa !3
  %3 = load ptr, ptr %2, align 8, !tbaa !3
  %4 = call i32 @_Py_IsImmortal(ptr noundef %3)
  %5 = icmp ne i32 %4, 0
  br i1 %5, label %6, label %7

6:                                                ; preds = %1
  br label %16

7:                                                ; preds = %1
  %8 = load ptr, ptr %2, align 8, !tbaa !3
  %9 = getelementptr inbounds nuw %struct._object, ptr %8, i32 0, i32 0
  %10 = getelementptr inbounds nuw %struct.anon, ptr %9, i32 0, i32 0
  %11 = load i32, ptr %10, align 8, !tbaa !33
  %12 = add i32 %11, -1
  store i32 %12, ptr %10, align 8, !tbaa !33
  %13 = icmp eq i32 %12, 0
  br i1 %13, label %14, label %16

14:                                               ; preds = %7
  %15 = load ptr, ptr %2, align 8, !tbaa !3
  call void @_Py_Dealloc(ptr noundef %15)
  br label %16

16:                                               ; preds = %6, %14, %7
  ret void
}

; Function Attrs: alwaysinline nounwind uwtable
define internal void @Py_INCREF(ptr noundef %0) #4 {
  %2 = alloca ptr, align 8
  %3 = alloca i32, align 4
  %4 = alloca i32, align 4
  store ptr %0, ptr %2, align 8, !tbaa !3
  call void @llvm.lifetime.start.p0(i64 4, ptr %3) #7
  %5 = load ptr, ptr %2, align 8, !tbaa !3
  %6 = getelementptr inbounds nuw %struct._object, ptr %5, i32 0, i32 0
  %7 = getelementptr inbounds nuw %struct.anon, ptr %6, i32 0, i32 0
  %8 = load i32, ptr %7, align 8, !tbaa !33
  store i32 %8, ptr %3, align 4, !tbaa !12
  %9 = load i32, ptr %3, align 4, !tbaa !12
  %10 = icmp slt i32 %9, 0
  br i1 %10, label %11, label %12

11:                                               ; preds = %1
  store i32 1, ptr %4, align 4
  br label %18

12:                                               ; preds = %1
  %13 = load i32, ptr %3, align 4, !tbaa !12
  %14 = add i32 %13, 1
  %15 = load ptr, ptr %2, align 8, !tbaa !3
  %16 = getelementptr inbounds nuw %struct._object, ptr %15, i32 0, i32 0
  %17 = getelementptr inbounds nuw %struct.anon, ptr %16, i32 0, i32 0
  store i32 %14, ptr %17, align 8, !tbaa !33
  store i32 0, ptr %4, align 4
  br label %18

18:                                               ; preds = %12, %11
  call void @llvm.lifetime.end.p0(i64 4, ptr %3) #7
  %19 = load i32, ptr %4, align 4
  switch i32 %19, label %21 [
    i32 0, label %20
    i32 1, label %20
  ]

20:                                               ; preds = %18, %18
  ret void

21:                                               ; preds = %18
  unreachable
}

; Function Attrs: inlinehint nounwind uwtable
define internal i64 @Py_SIZE(ptr noundef %0) #3 {
  %2 = alloca ptr, align 8
  store ptr %0, ptr %2, align 8, !tbaa !3
  %3 = load ptr, ptr %2, align 8, !tbaa !3
  %4 = getelementptr inbounds nuw %struct.PyVarObject, ptr %3, i32 0, i32 1
  %5 = load i64, ptr %4, align 8, !tbaa !58
  ret i64 %5
}

; Function Attrs: inlinehint nounwind uwtable
define internal ptr @_BlocksOutputBuffer_Finish(ptr noundef %0, i64 noundef %1) #3 {
  %3 = alloca ptr, align 8
  %4 = alloca ptr, align 8
  %5 = alloca i64, align 8
  %6 = alloca ptr, align 8
  %7 = alloca ptr, align 8
  %8 = alloca i64, align 8
  %9 = alloca ptr, align 8
  %10 = alloca ptr, align 8
  %11 = alloca i32, align 4
  %12 = alloca ptr, align 8
  %13 = alloca i64, align 8
  %14 = alloca ptr, align 8
  %15 = alloca ptr, align 8
  store ptr %0, ptr %4, align 8, !tbaa !8
  store i64 %1, ptr %5, align 8, !tbaa !43
  call void @llvm.lifetime.start.p0(i64 8, ptr %6) #7
  call void @llvm.lifetime.start.p0(i64 8, ptr %7) #7
  call void @llvm.lifetime.start.p0(i64 8, ptr %8) #7
  %16 = load ptr, ptr %4, align 8, !tbaa !8
  %17 = getelementptr inbounds nuw %struct._BlocksOutputBuffer, ptr %16, i32 0, i32 0
  %18 = load ptr, ptr %17, align 8, !tbaa !51
  %19 = call i64 @Py_SIZE(ptr noundef %18)
  store i64 %19, ptr %8, align 8, !tbaa !43
  %20 = load i64, ptr %8, align 8, !tbaa !43
  %21 = icmp eq i64 %20, 1
  br i1 %21, label %22, label %25

22:                                               ; preds = %2
  %23 = load i64, ptr %5, align 8, !tbaa !43
  %24 = icmp eq i64 %23, 0
  br i1 %24, label %39, label %25

25:                                               ; preds = %22, %2
  %26 = load i64, ptr %8, align 8, !tbaa !43
  %27 = icmp eq i64 %26, 2
  br i1 %27, label %28, label %62

28:                                               ; preds = %25
  %29 = load ptr, ptr %4, align 8, !tbaa !8
  %30 = getelementptr inbounds nuw %struct._BlocksOutputBuffer, ptr %29, i32 0, i32 0
  %31 = load ptr, ptr %30, align 8, !tbaa !51
  %32 = getelementptr inbounds nuw %struct.PyListObject, ptr %31, i32 0, i32 1
  %33 = load ptr, ptr %32, align 8, !tbaa !55
  %34 = getelementptr ptr, ptr %33, i64 1
  %35 = load ptr, ptr %34, align 8, !tbaa !3
  %36 = call i64 @Py_SIZE(ptr noundef %35)
  %37 = load i64, ptr %5, align 8, !tbaa !43
  %38 = icmp eq i64 %36, %37
  br i1 %38, label %39, label %62

39:                                               ; preds = %28, %22
  %40 = load ptr, ptr %4, align 8, !tbaa !8
  %41 = getelementptr inbounds nuw %struct._BlocksOutputBuffer, ptr %40, i32 0, i32 0
  %42 = load ptr, ptr %41, align 8, !tbaa !51
  %43 = getelementptr inbounds nuw %struct.PyListObject, ptr %42, i32 0, i32 1
  %44 = load ptr, ptr %43, align 8, !tbaa !55
  %45 = getelementptr ptr, ptr %44, i64 0
  %46 = load ptr, ptr %45, align 8, !tbaa !3
  store ptr %46, ptr %7, align 8, !tbaa !3
  %47 = load ptr, ptr %7, align 8, !tbaa !3
  call void @Py_INCREF(ptr noundef %47)
  br label %48

48:                                               ; preds = %39
  call void @llvm.lifetime.start.p0(i64 8, ptr %9) #7
  %49 = load ptr, ptr %4, align 8, !tbaa !8
  %50 = getelementptr inbounds nuw %struct._BlocksOutputBuffer, ptr %49, i32 0, i32 0
  store ptr %50, ptr %9, align 8, !tbaa !59
  call void @llvm.lifetime.start.p0(i64 8, ptr %10) #7
  %51 = load ptr, ptr %9, align 8, !tbaa !59
  %52 = load ptr, ptr %51, align 8, !tbaa !3
  store ptr %52, ptr %10, align 8, !tbaa !3
  %53 = load ptr, ptr %10, align 8, !tbaa !3
  %54 = icmp ne ptr %53, null
  br i1 %54, label %55, label %58

55:                                               ; preds = %48
  %56 = load ptr, ptr %9, align 8, !tbaa !59
  store ptr null, ptr %56, align 8, !tbaa !3
  %57 = load ptr, ptr %10, align 8, !tbaa !3
  call void @Py_DECREF(ptr noundef %57)
  br label %58

58:                                               ; preds = %55, %48
  call void @llvm.lifetime.end.p0(i64 8, ptr %10) #7
  call void @llvm.lifetime.end.p0(i64 8, ptr %9) #7
  br label %59

59:                                               ; preds = %58
  br label %60

60:                                               ; preds = %59
  %61 = load ptr, ptr %7, align 8, !tbaa !3
  store ptr %61, ptr %3, align 8
  store i32 1, ptr %11, align 4
  br label %137

62:                                               ; preds = %28, %25
  %63 = load ptr, ptr %4, align 8, !tbaa !8
  %64 = getelementptr inbounds nuw %struct._BlocksOutputBuffer, ptr %63, i32 0, i32 1
  %65 = load i64, ptr %64, align 8, !tbaa !53
  %66 = load i64, ptr %5, align 8, !tbaa !43
  %67 = sub i64 %65, %66
  %68 = call ptr @PyBytes_FromStringAndSize(ptr noundef null, i64 noundef %67)
  store ptr %68, ptr %6, align 8, !tbaa !3
  %69 = load ptr, ptr %6, align 8, !tbaa !3
  %70 = icmp eq ptr %69, null
  br i1 %70, label %71, label %73

71:                                               ; preds = %62
  %72 = load ptr, ptr @PyExc_MemoryError, align 8, !tbaa !3
  call void @PyErr_SetString(ptr noundef %72, ptr noundef @unable_allocate_msg)
  store ptr null, ptr %3, align 8
  store i32 1, ptr %11, align 4
  br label %137

73:                                               ; preds = %62
  %74 = load i64, ptr %8, align 8, !tbaa !43
  %75 = icmp sgt i64 %74, 0
  br i1 %75, label %76, label %121

76:                                               ; preds = %73
  call void @llvm.lifetime.start.p0(i64 8, ptr %12) #7
  %77 = load ptr, ptr %6, align 8, !tbaa !3
  %78 = call ptr @PyBytes_AS_STRING(ptr noundef %77)
  store ptr %78, ptr %12, align 8, !tbaa !42
  call void @llvm.lifetime.start.p0(i64 8, ptr %13) #7
  store i64 0, ptr %13, align 8, !tbaa !43
  br label %79

79:                                               ; preds = %102, %76
  %80 = load i64, ptr %13, align 8, !tbaa !43
  %81 = load i64, ptr %8, align 8, !tbaa !43
  %82 = sub i64 %81, 1
  %83 = icmp slt i64 %80, %82
  br i1 %83, label %84, label %105

84:                                               ; preds = %79
  %85 = load ptr, ptr %4, align 8, !tbaa !8
  %86 = getelementptr inbounds nuw %struct._BlocksOutputBuffer, ptr %85, i32 0, i32 0
  %87 = load ptr, ptr %86, align 8, !tbaa !51
  %88 = getelementptr inbounds nuw %struct.PyListObject, ptr %87, i32 0, i32 1
  %89 = load ptr, ptr %88, align 8, !tbaa !55
  %90 = load i64, ptr %13, align 8, !tbaa !43
  %91 = getelementptr ptr, ptr %89, i64 %90
  %92 = load ptr, ptr %91, align 8, !tbaa !3
  store ptr %92, ptr %7, align 8, !tbaa !3
  %93 = load ptr, ptr %12, align 8, !tbaa !42
  %94 = load ptr, ptr %7, align 8, !tbaa !3
  %95 = call ptr @PyBytes_AS_STRING(ptr noundef %94)
  %96 = load ptr, ptr %7, align 8, !tbaa !3
  %97 = call i64 @Py_SIZE(ptr noundef %96)
  call void @llvm.memcpy.p0.p0.i64(ptr align 1 %93, ptr align 1 %95, i64 %97, i1 false)
  %98 = load ptr, ptr %7, align 8, !tbaa !3
  %99 = call i64 @Py_SIZE(ptr noundef %98)
  %100 = load ptr, ptr %12, align 8, !tbaa !42
  %101 = getelementptr i8, ptr %100, i64 %99
  store ptr %101, ptr %12, align 8, !tbaa !42
  br label %102

102:                                              ; preds = %84
  %103 = load i64, ptr %13, align 8, !tbaa !43
  %104 = add i64 %103, 1
  store i64 %104, ptr %13, align 8, !tbaa !43
  br label %79, !llvm.loop !60

105:                                              ; preds = %79
  %106 = load ptr, ptr %4, align 8, !tbaa !8
  %107 = getelementptr inbounds nuw %struct._BlocksOutputBuffer, ptr %106, i32 0, i32 0
  %108 = load ptr, ptr %107, align 8, !tbaa !51
  %109 = getelementptr inbounds nuw %struct.PyListObject, ptr %108, i32 0, i32 1
  %110 = load ptr, ptr %109, align 8, !tbaa !55
  %111 = load i64, ptr %13, align 8, !tbaa !43
  %112 = getelementptr ptr, ptr %110, i64 %111
  %113 = load ptr, ptr %112, align 8, !tbaa !3
  store ptr %113, ptr %7, align 8, !tbaa !3
  %114 = load ptr, ptr %12, align 8, !tbaa !42
  %115 = load ptr, ptr %7, align 8, !tbaa !3
  %116 = call ptr @PyBytes_AS_STRING(ptr noundef %115)
  %117 = load ptr, ptr %7, align 8, !tbaa !3
  %118 = call i64 @Py_SIZE(ptr noundef %117)
  %119 = load i64, ptr %5, align 8, !tbaa !43
  %120 = sub i64 %118, %119
  call void @llvm.memcpy.p0.p0.i64(ptr align 1 %114, ptr align 1 %116, i64 %120, i1 false)
  call void @llvm.lifetime.end.p0(i64 8, ptr %13) #7
  call void @llvm.lifetime.end.p0(i64 8, ptr %12) #7
  br label %122

121:                                              ; preds = %73
  br label %122

122:                                              ; preds = %121, %105
  br label %123

123:                                              ; preds = %122
  call void @llvm.lifetime.start.p0(i64 8, ptr %14) #7
  %124 = load ptr, ptr %4, align 8, !tbaa !8
  %125 = getelementptr inbounds nuw %struct._BlocksOutputBuffer, ptr %124, i32 0, i32 0
  store ptr %125, ptr %14, align 8, !tbaa !59
  call void @llvm.lifetime.start.p0(i64 8, ptr %15) #7
  %126 = load ptr, ptr %14, align 8, !tbaa !59
  %127 = load ptr, ptr %126, align 8, !tbaa !3
  store ptr %127, ptr %15, align 8, !tbaa !3
  %128 = load ptr, ptr %15, align 8, !tbaa !3
  %129 = icmp ne ptr %128, null
  br i1 %129, label %130, label %133

130:                                              ; preds = %123
  %131 = load ptr, ptr %14, align 8, !tbaa !59
  store ptr null, ptr %131, align 8, !tbaa !3
  %132 = load ptr, ptr %15, align 8, !tbaa !3
  call void @Py_DECREF(ptr noundef %132)
  br label %133

133:                                              ; preds = %130, %123
  call void @llvm.lifetime.end.p0(i64 8, ptr %15) #7
  call void @llvm.lifetime.end.p0(i64 8, ptr %14) #7
  br label %134

134:                                              ; preds = %133
  br label %135

135:                                              ; preds = %134
  %136 = load ptr, ptr %6, align 8, !tbaa !3
  store ptr %136, ptr %3, align 8
  store i32 1, ptr %11, align 4
  br label %137

137:                                              ; preds = %135, %71, %60
  call void @llvm.lifetime.end.p0(i64 8, ptr %8) #7
  call void @llvm.lifetime.end.p0(i64 8, ptr %7) #7
  call void @llvm.lifetime.end.p0(i64 8, ptr %6) #7
  %138 = load ptr, ptr %3, align 8
  ret ptr %138
}

; Function Attrs: inlinehint nounwind uwtable
define internal ptr @OutputBuffer_Finish(ptr noundef %0, i32 noundef %1) #3 {
  %3 = alloca ptr, align 8
  %4 = alloca i32, align 4
  store ptr %0, ptr %3, align 8, !tbaa !8
  store i32 %1, ptr %4, align 4, !tbaa !12
  %5 = load ptr, ptr %3, align 8, !tbaa !8
  %6 = load i32, ptr %4, align 4, !tbaa !12
  %7 = zext i32 %6 to i64
  %8 = call ptr @_BlocksOutputBuffer_Finish(ptr noundef %5, i64 noundef %7)
  ret ptr %8
}