; Function Attrs: inlinehint nounwind uwtable
define internal fastcc ptr @OutputBuffer_Finish(ptr noundef nonnull captures(none) %0, i32 noundef %1) unnamed_addr #4 {
  %3 = zext i32 %1 to i64
  %4 = load ptr, ptr %0, align 8, !tbaa !41
  %5 = getelementptr i8, ptr %4, i64 16
  %.val55.i = load i64, ptr %5, align 8, !tbaa !29
  %6 = icmp eq i64 %.val55.i, 1
  %7 = icmp eq i32 %1, 0
  %or.cond.i = and i1 %7, %6
  br i1 %or.cond.i, label %._crit_edge61.i, label %8

._crit_edge61.i:                                  ; preds = %2
  %.phi.trans.insert.i = getelementptr inbounds nuw i8, ptr %4, i64 24
  %.pre.i = load ptr, ptr %.phi.trans.insert.i, align 8, !tbaa !44
  br label %17

8:                                                ; preds = %2
  %9 = icmp eq i64 %.val55.i, 2
  br i1 %9, label %10, label %29

10:                                               ; preds = %8
  %11 = getelementptr inbounds nuw i8, ptr %4, i64 24
  %12 = load ptr, ptr %11, align 8, !tbaa !44
  %13 = getelementptr i8, ptr %12, i64 8
  %14 = load ptr, ptr %13, align 8, !tbaa !30
  %15 = getelementptr i8, ptr %14, i64 16
  %.val54.i = load i64, ptr %15, align 8, !tbaa !29
  %16 = icmp eq i64 %.val54.i, %3
  br i1 %16, label %17, label %29

17:                                               ; preds = %10, %._crit_edge61.i
  %18 = phi ptr [ %.pre.i, %._crit_edge61.i ], [ %12, %10 ]
  %19 = load ptr, ptr %18, align 8, !tbaa !30
  %20 = load i32, ptr %19, align 8, !tbaa !11
  %21 = icmp slt i32 %20, 0
  br i1 %21, label %Py_INCREF.exit.thread.i, label %Py_INCREF.exit.i

Py_INCREF.exit.i:                                 ; preds = %17
  %22 = add nuw i32 %20, 1
  store i32 %22, ptr %19, align 8, !tbaa !11
  %.pre62.i = load ptr, ptr %0, align 8, !tbaa !30
  %.not48.i = icmp eq ptr %.pre62.i, null
  br i1 %.not48.i, label %_BlocksOutputBuffer_Finish.exit, label %Py_INCREF.exit.thread.i

Py_INCREF.exit.thread.i:                          ; preds = %Py_INCREF.exit.i, %17
  %23 = phi ptr [ %.pre62.i, %Py_INCREF.exit.i ], [ %4, %17 ]
  store ptr null, ptr %0, align 8, !tbaa !30
  %24 = load i32, ptr %23, align 8, !tbaa !11
  %.not.i49.i = icmp sgt i32 %24, -1
  br i1 %.not.i49.i, label %25, label %_BlocksOutputBuffer_Finish.exit

25:                                               ; preds = %Py_INCREF.exit.thread.i
  %26 = add nsw i32 %24, -1
  store i32 %26, ptr %23, align 8, !tbaa !11
  %27 = icmp eq i32 %26, 0
  br i1 %27, label %28, label %_BlocksOutputBuffer_Finish.exit

28:                                               ; preds = %25
  tail call void @_Py_Dealloc(ptr noundef nonnull %23) #7
  br label %_BlocksOutputBuffer_Finish.exit

29:                                               ; preds = %10, %8
  %30 = getelementptr inbounds nuw i8, ptr %0, i64 8
  %31 = load i64, ptr %30, align 8, !tbaa !47
  %32 = sub i64 %31, %3
  %33 = tail call ptr @PyBytes_FromStringAndSize(ptr noundef null, i64 noundef %32) #7
  %34 = icmp eq ptr %33, null
  br i1 %34, label %35, label %37

35:                                               ; preds = %29
  %36 = load ptr, ptr @PyExc_MemoryError, align 8, !tbaa !30
  tail call void @PyErr_SetString(ptr noundef %36, ptr noundef nonnull @unable_allocate_msg) #7
  br label %_BlocksOutputBuffer_Finish.exit

37:                                               ; preds = %29
  %38 = icmp sgt i64 %.val55.i, 0
  br i1 %38, label %39, label %59

39:                                               ; preds = %37
  %40 = getelementptr inbounds nuw i8, ptr %33, i64 32
  %41 = add nsw i64 %.val55.i, -1
  br i1 %6, label %._crit_edge.i, label %.lr.ph.i

.lr.ph.i:                                         ; preds = %39, %.lr.ph.i
  %.04257.i = phi i64 [ %50, %.lr.ph.i ], [ 0, %39 ]
  %.04356.i = phi ptr [ %49, %.lr.ph.i ], [ %40, %39 ]
  %42 = load ptr, ptr %0, align 8, !tbaa !41
  %43 = getelementptr inbounds nuw i8, ptr %42, i64 24
  %44 = load ptr, ptr %43, align 8, !tbaa !44
  %45 = getelementptr ptr, ptr %44, i64 %.04257.i
  %46 = load ptr, ptr %45, align 8, !tbaa !30
  %47 = getelementptr inbounds nuw i8, ptr %46, i64 32
  %48 = getelementptr i8, ptr %46, i64 16
  %.val53.i = load i64, ptr %48, align 8, !tbaa !29
  tail call void @llvm.memcpy.p0.p0.i64(ptr align 1 %.04356.i, ptr nonnull align 1 %47, i64 %.val53.i, i1 false)
  %.val52.i = load i64, ptr %48, align 8, !tbaa !29
  %49 = getelementptr i8, ptr %.04356.i, i64 %.val52.i
  %50 = add nuw nsw i64 %.04257.i, 1
  %exitcond.not.i = icmp eq i64 %50, %41
  br i1 %exitcond.not.i, label %._crit_edge.i, label %.lr.ph.i, !llvm.loop !54

._crit_edge.i:                                    ; preds = %.lr.ph.i, %39
  %.043.lcssa.i = phi ptr [ %40, %39 ], [ %49, %.lr.ph.i ]
  %.042.lcssa.i = phi i64 [ 0, %39 ], [ %41, %.lr.ph.i ]
  %51 = load ptr, ptr %0, align 8, !tbaa !41
  %52 = getelementptr inbounds nuw i8, ptr %51, i64 24
  %53 = load ptr, ptr %52, align 8, !tbaa !44
  %54 = getelementptr ptr, ptr %53, i64 %.042.lcssa.i
  %55 = load ptr, ptr %54, align 8, !tbaa !30
  %56 = getelementptr inbounds nuw i8, ptr %55, i64 32
  %57 = getelementptr i8, ptr %55, i64 16
  %.val.i = load i64, ptr %57, align 8, !tbaa !29
  %58 = sub i64 %.val.i, %3
  tail call void @llvm.memcpy.p0.p0.i64(ptr align 1 %.043.lcssa.i, ptr nonnull align 1 %56, i64 %58, i1 false)
  br label %59

59:                                               ; preds = %._crit_edge.i, %37
  %60 = load ptr, ptr %0, align 8, !tbaa !30
  %.not.i = icmp eq ptr %60, null
  br i1 %.not.i, label %_BlocksOutputBuffer_Finish.exit, label %61

61:                                               ; preds = %59
  store ptr null, ptr %0, align 8, !tbaa !30
  %62 = load i32, ptr %60, align 8, !tbaa !11
  %.not.i.i = icmp sgt i32 %62, -1
  br i1 %.not.i.i, label %63, label %_BlocksOutputBuffer_Finish.exit

63:                                               ; preds = %61
  %64 = add nsw i32 %62, -1
  store i32 %64, ptr %60, align 8, !tbaa !11
  %65 = icmp eq i32 %64, 0
  br i1 %65, label %66, label %_BlocksOutputBuffer_Finish.exit

66:                                               ; preds = %63
  tail call void @_Py_Dealloc(ptr noundef nonnull %60) #7
  br label %_BlocksOutputBuffer_Finish.exit

_BlocksOutputBuffer_Finish.exit:                  ; preds = %Py_INCREF.exit.i, %Py_INCREF.exit.thread.i, %25, %28, %35, %59, %61, %63, %66
  %.0.i = phi ptr [ null, %35 ], [ %19, %Py_INCREF.exit.i ], [ %33, %59 ], [ %19, %Py_INCREF.exit.thread.i ], [ %19, %25 ], [ %19, %28 ], [ %33, %61 ], [ %33, %63 ], [ %33, %66 ]
  ret ptr %.0.i
}